; Function Attrs: mustprogress uwtable
define noundef nonnull align 8 dereferenceable(8) ptr @_ZlsRSoRK10BigInteger(ptr noundef nonnull returned align 8 dereferenceable(8) %0, ptr noundef nonnull align 8 dereferenceable(24) %1) local_unnamed_addr #3 {
  %3 = alloca i8, align 1
  %4 = load i32, ptr %1, align 8, !tbaa !13
  %5 = icmp eq i32 %4, -1
  br i1 %5, label %6, label %17

6:                                                ; preds = %2
  call void @llvm.lifetime.start.p0(i64 1, ptr nonnull %3)
  store i8 45, ptr %3, align 1, !tbaa !22
  %7 = load ptr, ptr %0, align 8, !tbaa !54
  %8 = getelementptr i8, ptr %7, i64 -24
  %9 = load i64, ptr %8, align 8
  %10 = getelementptr inbounds i8, ptr %0, i64 %9
  %11 = getelementptr inbounds nuw i8, ptr %10, i64 16
  %12 = load i64, ptr %11, align 8, !tbaa !65
  %.not.i = icmp eq i64 %12, 0
  br i1 %.not.i, label %15, label %13

13:                                               ; preds = %6
  %14 = call noundef nonnull align 8 dereferenceable(8) ptr @_ZSt16__ostream_insertIcSt11char_traitsIcEERSt13basic_ostreamIT_T0_ES6_PKS3_l(ptr noundef nonnull align 8 dereferenceable(8) %0, ptr noundef nonnull %3, i64 noundef 1)
  br label %_ZStlsISt11char_traitsIcEERSt13basic_ostreamIcT_ES5_c.exit

15:                                               ; preds = %6
  %16 = tail call noundef nonnull align 8 dereferenceable(8) ptr @_ZNSo3putEc(ptr noundef nonnull align 8 dereferenceable(8) %0, i8 noundef signext 45)
  br label %_ZStlsISt11char_traitsIcEERSt13basic_ostreamIcT_ES5_c.exit

_ZStlsISt11char_traitsIcEERSt13basic_ostreamIcT_ES5_c.exit: ; preds = %13, %15
  call void @llvm.lifetime.end.p0(i64 1, ptr nonnull %3)
  br label %17

17:                                               ; preds = %_ZStlsISt11char_traitsIcEERSt13basic_ostreamIcT_ES5_c.exit, %2
  %18 = getelementptr inbounds nuw i8, ptr %1, i64 8
  %19 = call noundef nonnull align 8 dereferenceable(8) ptr @_ZlsRSoRK11BigUnsigned(ptr noundef nonnull align 8 dereferenceable(8) %0, ptr noundef nonnull align 8 dereferenceable(16) %18)
  ret ptr %0
}